target datalayout = "e-m:e-p270:32:32-p271:32:32-p272:64:64-i64:64-i128:128-f80:128-n8:16:32:64-S128"
target triple = "x86_64-pc-linux-gnu"

%struct.sockaddr_un = type { i16, [108 x i8] }

@.str.7 = private unnamed_addr constant [20 x i8] c"%s: connected to %s\00", align 1
@__func__._sack_connect = private unnamed_addr constant [14 x i8] c"_sack_connect\00", align 1
@.str.8 = private unnamed_addr constant [38 x i8] c"failed to connect to any sack sockets\00", align 1
@.str.9 = private unnamed_addr constant [24 x i8] c"%s: socket() failed: %m\00", align 1
@__func__._sack_try_connection = private unnamed_addr constant [21 x i8] c"_sack_try_connection\00", align 1
@.str.10 = private unnamed_addr constant [32 x i8] c"%s: connect() failed for %s: %m\00", align 1

; Function Attrs: nounwind uwtable
define internal i32 @_sack_try_connection(ptr noundef %0) #0 {
  %2 = alloca i32, align 4
  %3 = alloca ptr, align 8
  %4 = alloca i32, align 4
  %5 = alloca i64, align 8
  %6 = alloca i32, align 4
  store ptr %0, ptr %3, align 8
  call void @llvm.lifetime.start.p0(i64 4, ptr %4) #7
  call void @llvm.lifetime.start.p0(i64 8, ptr %5) #7
  %7 = load ptr, ptr %3, align 8
  %8 = getelementptr inbounds nuw %struct.sockaddr_un, ptr %7, i32 0, i32 1
  %9 = getelementptr inbounds [108 x i8], ptr %8, i64 0, i64 0
  %10 = call i64 @strlen(ptr noundef %9) #9
  %11 = add i64 %10, 1
  %12 = add i64 %11, 2
  store i64 %12, ptr %5, align 8
  %13 = call i32 @socket(i32 noundef 1, i32 noundef 1, i32 noundef 0) #7
  store i32 %13, ptr %4, align 4
  %14 = icmp slt i32 %13, 0
  br i1 %14, label %15, label %26

15:                                               ; preds = %1
  br label %16

16:                                               ; preds = %15
  br label %17

17:                                               ; preds = %16
  %18 = call i32 @get_log_level()
  %19 = icmp sge i32 %18, 7
  br i1 %19, label %20, label %21

20:                                               ; preds = %17
  call void (i32, ptr, ...) @log_var(i32 noundef 7, ptr noundef @.str.9, ptr noundef @__func__._sack_try_connection)
  br label %21

21:                                               ; preds = %20, %17
  br label %22

22:                                               ; preds = %21
  br label %23

23:                                               ; preds = %22
  br label %24

24:                                               ; preds = %23
  br label %25

25:                                               ; preds = %24
  store i32 -1, ptr %2, align 4
  store i32 1, ptr %6, align 4
  br label %51

26:                                               ; preds = %1
  %27 = load i32, ptr %4, align 4
  %28 = load ptr, ptr %3, align 8
  %29 = load i64, ptr %5, align 8
  %30 = trunc i64 %29 to i32
  %31 = call i32 @connect(i32 noundef %27, ptr noundef %28, i32 noundef %30)
  %32 = icmp slt i32 %31, 0
  br i1 %32, label %33, label %49

33:                                               ; preds = %26
  br label %34

34:                                               ; preds = %33
  br label %35

35:                                               ; preds = %34
  %36 = call i32 @get_log_level()
  %37 = icmp sge i32 %36, 7
  br i1 %37, label %38, label %42

38:                                               ; preds = %35
  %39 = load ptr, ptr %3, align 8
  %40 = getelementptr inbounds nuw %struct.sockaddr_un, ptr %39, i32 0, i32 1
  %41 = getelementptr inbounds [108 x i8], ptr %40, i64 0, i64 0
  call void (i32, ptr, ...) @log_var(i32 noundef 7, ptr noundef @.str.10, ptr noundef @__func__._sack_try_connection, ptr noundef %41)
  br label %42

42:                                               ; preds = %38, %35
  br label %43

43:                                               ; preds = %42
  br label %44

44:                                               ; preds = %43
  br label %45

45:                                               ; preds = %44
  br label %46

46:                                               ; preds = %45
  %47 = load i32, ptr %4, align 4
  %48 = call i32 @close(i32 noundef %47)
  store i32 -1, ptr %2, align 4
  store i32 1, ptr %6, align 4
  br label %51

49:                                               ; preds = %26
  %50 = load i32, ptr %4, align 4
  store i32 %50, ptr %2, align 4
  store i32 1, ptr %6, align 4
  br label %51

51:                                               ; preds = %49, %46, %25
  call void @llvm.lifetime.end.p0(i64 8, ptr %5) #7
  call void @llvm.lifetime.end.p0(i64 4, ptr %4) #7
  %52 = load i32, ptr %2, align 4
  ret i32 %52
}

; Function Attrs: nounwind uwtable
define internal i32 @_sack_connect() #0 {
  %1 = alloca i32, align 4
  %2 = alloca i32, align 4
  %3 = alloca i32, align 4
  %4 = alloca i32, align 4
  call void @llvm.lifetime.start.p0(i64 4, ptr %2) #7
  store i32 0, ptr %2, align 4
  br label %5

5:                                                ; preds = %36, %0
  %6 = load i32, ptr %2, align 4
  %7 = sext i32 %6 to i64
  %8 = icmp ult i64 %7, 3
  br i1 %8, label %10, label %9

9:                                                ; preds = %5
  store i32 2, ptr %3, align 4
  br label %39

10:                                               ; preds = %5
  call void @llvm.lifetime.start.p0(i64 4, ptr %4) #7
  %11 = load i32, ptr %2, align 4
  %12 = sext i32 %11 to i64
  %13 = getelementptr inbounds [3 x %struct.sockaddr_un], ptr @sack_addrs, i64 0, i64 %12
  %14 = call i32 @_sack_try_connection(ptr noundef %13)
  store i32 %14, ptr %4, align 4
  %15 = icmp slt i32 %14, 0
  br i1 %15, label %16, label %17

16:                                               ; preds = %10
  store i32 4, ptr %3, align 4
  br label %34

17:                                               ; preds = %10
  br label %18

18:                                               ; preds = %17
  br label %19

19:                                               ; preds = %18
  %20 = call i32 @get_log_level()
  %21 = icmp sge i32 %20, 6
  br i1 %21, label %22, label %28

22:                                               ; preds = %19
  %23 = load i32, ptr %2, align 4
  %24 = sext i32 %23 to i64
  %25 = getelementptr inbounds [3 x %struct.sockaddr_un], ptr @sack_addrs, i64 0, i64 %24
  %26 = getelementptr inbounds nuw %struct.sockaddr_un, ptr %25, i32 0, i32 1
  %27 = getelementptr inbounds [108 x i8], ptr %26, i64 0, i64 0
  call void (i32, ptr, ...) @log_var(i32 noundef 6, ptr noundef @.str.7, ptr noundef @__func__._sack_connect, ptr noundef %27)
  br label %28

28:                                               ; preds = %22, %19
  br label %29

29:                                               ; preds = %28
  br label %30

30:                                               ; preds = %29
  br label %31

31:                                               ; preds = %30
  br label %32

32:                                               ; preds = %31
  %33 = load i32, ptr %4, align 4
  store i32 %33, ptr %1, align 4
  store i32 1, ptr %3, align 4
  br label %34

34:                                               ; preds = %32, %16
  call void @llvm.lifetime.end.p0(i64 4, ptr %4) #7
  %35 = load i32, ptr %3, align 4
  switch i32 %35, label %39 [
    i32 4, label %36
  ]

36:                                               ; preds = %34
  %37 = load i32, ptr %2, align 4
  %38 = add nsw i32 %37, 1
  store i32 %38, ptr %2, align 4
  br label %5, !llvm.loop !13

39:                                               ; preds = %34, %9
  call void @llvm.lifetime.end.p0(i64 4, ptr %2) #7
  %40 = load i32, ptr %3, align 4
  switch i32 %40, label %45 [
    i32 2, label %41
    i32 1, label %43
  ]

41:                                               ; preds = %39
  %42 = call i32 (ptr, ...) @error(ptr noundef @.str.8)
  store i32 -1, ptr %1, align 4
  br label %43

43:                                               ; preds = %41, %39
  %44 = load i32, ptr %1, align 4
  ret i32 %44

45:                                               ; preds = %39
  unreachable
}