; Function Attrs: nounwind uwtable
define internal fastcc range(i32 -1, -2147483648) i32 @_sack_connect() unnamed_addr #0 {
  br label %1

1:                                                ; preds = %0, %24
  %indvars.iv = phi i64 [ 0, %0 ], [ %indvars.iv.next, %24 ]
  %2 = getelementptr inbounds nuw [3 x %struct.sockaddr_un], ptr @sack_addrs, i64 0, i64 %indvars.iv
  %3 = getelementptr inbounds nuw i8, ptr %2, i64 2
  %4 = tail call i64 @strlen(ptr noundef nonnull dereferenceable(1) %3) #10
  %5 = tail call i32 @socket(i32 noundef 1, i32 noundef 1, i32 noundef 0) #8
  %6 = icmp slt i32 %5, 0
  br i1 %6, label %7, label %11

7:                                                ; preds = %1
  %8 = tail call i32 @get_log_level() #8
  %9 = icmp sgt i32 %8, 6
  br i1 %9, label %10, label %24

10:                                               ; preds = %7
  tail call void (i32, ptr, ...) @log_var(i32 noundef 7, ptr noundef nonnull @.str.9, ptr noundef nonnull @__func__._sack_try_connection) #8
  br label %24

11:                                               ; preds = %1
  %12 = trunc i64 %4 to i32
  %13 = add i32 %12, 3
  %14 = tail call i32 @connect(i32 noundef %5, ptr noundef nonnull %2, i32 noundef %13) #8
  %15 = icmp slt i32 %14, 0
  %16 = tail call i32 @get_log_level() #8
  br i1 %15, label %17, label %_sack_try_connection.exit

17:                                               ; preds = %11
  %18 = icmp sgt i32 %16, 6
  br i1 %18, label %19, label %20

19:                                               ; preds = %17
  tail call void (i32, ptr, ...) @log_var(i32 noundef 7, ptr noundef nonnull @.str.10, ptr noundef nonnull @__func__._sack_try_connection, ptr noundef nonnull %3) #8
  br label %20

20:                                               ; preds = %19, %17
  %21 = tail call i32 @close(i32 noundef %5) #8
  br label %24

_sack_try_connection.exit:                        ; preds = %11
  %22 = icmp sgt i32 %16, 5
  br i1 %22, label %23, label %27

23:                                               ; preds = %_sack_try_connection.exit
  tail call void (i32, ptr, ...) @log_var(i32 noundef 6, ptr noundef nonnull @.str.7, ptr noundef nonnull @__func__._sack_connect, ptr noundef nonnull %3) #8
  br label %27

24:                                               ; preds = %7, %10, %20
  %indvars.iv.next = add nuw nsw i64 %indvars.iv, 1
  %exitcond.not = icmp eq i64 %indvars.iv.next, 3
  br i1 %exitcond.not, label %25, label %1, !llvm.loop !13

25:                                               ; preds = %24
  %26 = tail call i32 (ptr, ...) @error(ptr noundef nonnull @.str.8) #8
  br label %27

27:                                               ; preds = %_sack_try_connection.exit, %23, %25
  %.3 = phi i32 [ -1, %25 ], [ %5, %23 ], [ %5, %_sack_try_connection.exit ]
  ret i32 %.3
}